(i__main__
Settings
p1
(dp2
S'serial_baud'
p3
NsS'convert_type'
p4
I2
sS'serial_port'
p5
NsS'last_open_dir'
p6
V/home/pablinho/Escritorio
p7
sS'last_open_filename'
p8
V/home/pablinho/Escritorio/Sphere_cut.ngc
p9
sb.